target datalayout = "e-m:e-p270:32:32-p271:32:32-p272:64:64-i64:64-i128:128-f80:128-n8:16:32:64-S128"
target triple = "x86_64-pc-linux-gnu"

%struct.SDL_VideoDevice = type { ptr, ptr, ptr, ptr, ptr, ptr, ptr, ptr, ptr, ptr, ptr, ptr, ptr, ptr, ptr, ptr, ptr, ptr, ptr, ptr, ptr, ptr, ptr, ptr, ptr, ptr, ptr, ptr, ptr, ptr, ptr, ptr, ptr, ptr, ptr, ptr, ptr, ptr, ptr, ptr, ptr, ptr, ptr, ptr, ptr, ptr, ptr, ptr, ptr, ptr, ptr, ptr, ptr, ptr, ptr, ptr, ptr, ptr, ptr, ptr, ptr, ptr, ptr, ptr, ptr, ptr, ptr, ptr, ptr, ptr, ptr, ptr, ptr, ptr, ptr, ptr, ptr, ptr, ptr, ptr, ptr, ptr, ptr, ptr, ptr, ptr, ptr, ptr, ptr, ptr, ptr, ptr, ptr, ptr, ptr, ptr, ptr, i64, i8, i8, i8, ptr, i32, ptr, %struct.SDL_Rect, ptr, ptr, i32, ptr, ptr, ptr, ptr, i64, ptr, i8, i32, i32, %struct.anon, ptr, ptr, ptr, ptr, ptr, ptr, %struct.SDL_AtomicInt, %struct.SDL_AtomicInt, i8, %struct.anon.0, ptr, ptr, ptr, ptr, ptr }
%struct.SDL_Rect = type { i32, i32, i32, i32 }
%struct.anon = type { i32, i32, i32, i32, i32, i32, i32, i32, i32, i32, i32, i32, i32, i32, i32, i32, i32, i32, i32, i32, i32, i32, i32, i32, i32, i32, i32, i32, i32, [256 x i8], ptr }
%struct.SDL_AtomicInt = type { i32 }
%struct.anon.0 = type { ptr, ptr, i32, [256 x i8], ptr }
%struct.SDL_EGL_VideoData = type { ptr, ptr, ptr, ptr, i32, i32, i32, i32, i32, i8, i32, ptr, ptr, ptr, ptr, ptr, ptr, ptr, ptr, ptr, ptr, ptr, ptr, ptr, ptr, ptr, ptr, ptr, ptr, ptr, ptr, ptr, ptr, ptr, ptr, ptr, ptr, ptr }

@.str = private unnamed_addr constant [5 x i8] c"0x%x\00", align 1
@.str.1 = private unnamed_addr constant [49 x i8] c"%s (call to %s failed, reporting an error of %s)\00", align 1
@.str.19 = private unnamed_addr constant [20 x i8] c"EGL not initialized\00", align 1
@.str.35 = private unnamed_addr constant [40 x i8] c"Late swap tearing currently unsupported\00", align 1
@.str.36 = private unnamed_addr constant [36 x i8] c"Unable to set the EGL swap interval\00", align 1
@.str.37 = private unnamed_addr constant [16 x i8] c"eglSwapInterval\00", align 1
@.str.47 = private unnamed_addr constant [12 x i8] c"EGL_SUCCESS\00", align 1
@.str.48 = private unnamed_addr constant [20 x i8] c"EGL_NOT_INITIALIZED\00", align 1
@.str.49 = private unnamed_addr constant [15 x i8] c"EGL_BAD_ACCESS\00", align 1
@.str.50 = private unnamed_addr constant [14 x i8] c"EGL_BAD_ALLOC\00", align 1
@.str.51 = private unnamed_addr constant [18 x i8] c"EGL_BAD_ATTRIBUTE\00", align 1
@.str.52 = private unnamed_addr constant [16 x i8] c"EGL_BAD_CONTEXT\00", align 1
@.str.53 = private unnamed_addr constant [15 x i8] c"EGL_BAD_CONFIG\00", align 1
@.str.54 = private unnamed_addr constant [24 x i8] c"EGL_BAD_CURRENT_SURFACE\00", align 1
@.str.55 = private unnamed_addr constant [16 x i8] c"EGL_BAD_DISPLAY\00", align 1
@.str.56 = private unnamed_addr constant [16 x i8] c"EGL_BAD_SURFACE\00", align 1
@.str.57 = private unnamed_addr constant [14 x i8] c"EGL_BAD_MATCH\00", align 1
@.str.58 = private unnamed_addr constant [18 x i8] c"EGL_BAD_PARAMETER\00", align 1
@.str.59 = private unnamed_addr constant [22 x i8] c"EGL_BAD_NATIVE_PIXMAP\00", align 1
@.str.60 = private unnamed_addr constant [22 x i8] c"EGL_BAD_NATIVE_WINDOW\00", align 1
@.str.61 = private unnamed_addr constant [17 x i8] c"EGL_CONTEXT_LOST\00", align 1
@.str.62 = private unnamed_addr constant [1 x i8] zeroinitializer, align 1

; Function Attrs: nounwind uwtable
define internal ptr @SDL_EGL_GetErrorName(i32 noundef %0) #0 {
  %2 = alloca ptr, align 8
  %3 = alloca i32, align 4
  store i32 %0, ptr %3, align 4
  %4 = load i32, ptr %3, align 4
  switch i32 %4, label %20 [
    i32 12288, label %5
    i32 12289, label %6
    i32 12290, label %7
    i32 12291, label %8
    i32 12292, label %9
    i32 12294, label %10
    i32 12293, label %11
    i32 12295, label %12
    i32 12296, label %13
    i32 12301, label %14
    i32 12297, label %15
    i32 12300, label %16
    i32 12298, label %17
    i32 12299, label %18
    i32 12302, label %19
  ]

5:                                                ; preds = %1
  store ptr @.str.47, ptr %2, align 8
  br label %21

6:                                                ; preds = %1
  store ptr @.str.48, ptr %2, align 8
  br label %21

7:                                                ; preds = %1
  store ptr @.str.49, ptr %2, align 8
  br label %21

8:                                                ; preds = %1
  store ptr @.str.50, ptr %2, align 8
  br label %21

9:                                                ; preds = %1
  store ptr @.str.51, ptr %2, align 8
  br label %21

10:                                               ; preds = %1
  store ptr @.str.52, ptr %2, align 8
  br label %21

11:                                               ; preds = %1
  store ptr @.str.53, ptr %2, align 8
  br label %21

12:                                               ; preds = %1
  store ptr @.str.54, ptr %2, align 8
  br label %21

13:                                               ; preds = %1
  store ptr @.str.55, ptr %2, align 8
  br label %21

14:                                               ; preds = %1
  store ptr @.str.56, ptr %2, align 8
  br label %21

15:                                               ; preds = %1
  store ptr @.str.57, ptr %2, align 8
  br label %21

16:                                               ; preds = %1
  store ptr @.str.58, ptr %2, align 8
  br label %21

17:                                               ; preds = %1
  store ptr @.str.59, ptr %2, align 8
  br label %21

18:                                               ; preds = %1
  store ptr @.str.60, ptr %2, align 8
  br label %21

19:                                               ; preds = %1
  store ptr @.str.61, ptr %2, align 8
  br label %21

20:                                               ; preds = %1
  store ptr @.str.62, ptr %2, align 8
  br label %21

21:                                               ; preds = %20, %19, %18, %17, %16, %15, %14, %13, %12, %11, %10, %9, %8, %7, %6, %5
  %22 = load ptr, ptr %2, align 8
  ret ptr %22
}

; Function Attrs: nounwind uwtable
define hidden zeroext i1 @SDL_EGL_SetErrorEx(ptr noundef %0, ptr noundef %1, i32 noundef %2) #0 {
  %4 = alloca ptr, align 8
  %5 = alloca ptr, align 8
  %6 = alloca i32, align 4
  %7 = alloca ptr, align 8
  %8 = alloca [32 x i8], align 16
  store ptr %0, ptr %4, align 8
  store ptr %1, ptr %5, align 8
  store i32 %2, ptr %6, align 4
  call void @llvm.lifetime.start.p0(i64 8, ptr %7) #5
  %9 = load i32, ptr %6, align 4
  %10 = call ptr @SDL_EGL_GetErrorName(i32 noundef %9)
  store ptr %10, ptr %7, align 8
  call void @llvm.lifetime.start.p0(i64 32, ptr %8) #5
  %11 = load ptr, ptr %7, align 8
  %12 = getelementptr inbounds i8, ptr %11, i64 0
  %13 = load i8, ptr %12, align 1
  %14 = sext i8 %13 to i32
  %15 = icmp eq i32 %14, 0
  br i1 %15, label %16, label %21

16:                                               ; preds = %3
  %17 = getelementptr inbounds [32 x i8], ptr %8, i64 0, i64 0
  %18 = load i32, ptr %6, align 4
  %19 = call i32 (ptr, i64, ptr, ...) @SDL_snprintf_REAL(ptr noundef %17, i64 noundef 32, ptr noundef @.str, i32 noundef %18)
  %20 = getelementptr inbounds [32 x i8], ptr %8, i64 0, i64 0
  store ptr %20, ptr %7, align 8
  br label %21

21:                                               ; preds = %16, %3
  %22 = load ptr, ptr %4, align 8
  %23 = load ptr, ptr %5, align 8
  %24 = load ptr, ptr %7, align 8
  %25 = call zeroext i1 (ptr, ...) @SDL_SetError_REAL(ptr noundef @.str.1, ptr noundef %22, ptr noundef %23, ptr noundef %24)
  call void @llvm.lifetime.end.p0(i64 32, ptr %8) #5
  call void @llvm.lifetime.end.p0(i64 8, ptr %7) #5
  ret i1 %25
}

; Function Attrs: nounwind uwtable
define hidden zeroext i1 @SDL_EGL_SetSwapInterval(ptr noundef %0, i32 noundef %1) #0 {
  %3 = alloca i1, align 1
  %4 = alloca ptr, align 8
  %5 = alloca i32, align 4
  %6 = alloca i32, align 4
  %7 = alloca i32, align 4
  store ptr %0, ptr %4, align 8
  store i32 %1, ptr %5, align 4
  call void @llvm.lifetime.start.p0(i64 4, ptr %6) #5
  %8 = load ptr, ptr %4, align 8
  %9 = getelementptr inbounds nuw %struct.SDL_VideoDevice, ptr %8, i32 0, i32 130
  %10 = load ptr, ptr %9, align 8
  %11 = icmp ne ptr %10, null
  br i1 %11, label %14, label %12

12:                                               ; preds = %2
  %13 = call zeroext i1 (ptr, ...) @SDL_SetError_REAL(ptr noundef @.str.19)
  store i1 %13, ptr %3, align 1
  store i32 1, ptr %7, align 4
  br label %48

14:                                               ; preds = %2
  %15 = load i32, ptr %5, align 4
  %16 = icmp slt i32 %15, 0
  br i1 %16, label %17, label %19

17:                                               ; preds = %14
  %18 = call zeroext i1 (ptr, ...) @SDL_SetError_REAL(ptr noundef @.str.35)
  store i1 %18, ptr %3, align 1
  store i32 1, ptr %7, align 4
  br label %48

19:                                               ; preds = %14
  %20 = load ptr, ptr %4, align 8
  %21 = getelementptr inbounds nuw %struct.SDL_VideoDevice, ptr %20, i32 0, i32 130
  %22 = load ptr, ptr %21, align 8
  %23 = getelementptr inbounds nuw %struct.SDL_EGL_VideoData, ptr %22, i32 0, i32 23
  %24 = load ptr, ptr %23, align 8
  %25 = load ptr, ptr %4, align 8
  %26 = getelementptr inbounds nuw %struct.SDL_VideoDevice, ptr %25, i32 0, i32 130
  %27 = load ptr, ptr %26, align 8
  %28 = getelementptr inbounds nuw %struct.SDL_EGL_VideoData, ptr %27, i32 0, i32 2
  %29 = load ptr, ptr %28, align 8
  %30 = load i32, ptr %5, align 4
  %31 = call i32 %24(ptr noundef %29, i32 noundef %30)
  store i32 %31, ptr %6, align 4
  %32 = load i32, ptr %6, align 4
  %33 = icmp eq i32 %32, 1
  br i1 %33, label %34, label %40

34:                                               ; preds = %19
  %35 = load i32, ptr %5, align 4
  %36 = load ptr, ptr %4, align 8
  %37 = getelementptr inbounds nuw %struct.SDL_VideoDevice, ptr %36, i32 0, i32 130
  %38 = load ptr, ptr %37, align 8
  %39 = getelementptr inbounds nuw %struct.SDL_EGL_VideoData, ptr %38, i32 0, i32 4
  store i32 %35, ptr %39, align 8
  store i1 true, ptr %3, align 1
  store i32 1, ptr %7, align 4
  br label %48

40:                                               ; preds = %19
  %41 = load ptr, ptr %4, align 8
  %42 = getelementptr inbounds nuw %struct.SDL_VideoDevice, ptr %41, i32 0, i32 130
  %43 = load ptr, ptr %42, align 8
  %44 = getelementptr inbounds nuw %struct.SDL_EGL_VideoData, ptr %43, i32 0, i32 29
  %45 = load ptr, ptr %44, align 8
  %46 = call i32 %45()
  %47 = call zeroext i1 @SDL_EGL_SetErrorEx(ptr noundef @.str.36, ptr noundef @.str.37, i32 noundef %46)
  store i1 %47, ptr %3, align 1
  store i32 1, ptr %7, align 4
  br label %48

48:                                               ; preds = %40, %34, %17, %12
  call void @llvm.lifetime.end.p0(i64 4, ptr %6) #5
  %49 = load i1, ptr %3, align 1
  ret i1 %49
}