; Function Attrs: nounwind uwtable
define hidden zeroext i1 @SDL_EGL_SetSwapInterval(ptr noundef readonly captures(none) %0, i32 noundef %1) local_unnamed_addr #0 {
  %3 = alloca [32 x i8], align 16
  %4 = getelementptr inbounds nuw i8, ptr %0, i64 1672
  %5 = load ptr, ptr %4, align 8
  %.not = icmp eq ptr %5, null
  br i1 %.not, label %6, label %8

6:                                                ; preds = %2
  %7 = tail call zeroext i1 (ptr, ...) @SDL_SetError_REAL(ptr noundef nonnull @.str.19) #7
  br label %33

8:                                                ; preds = %2
  %9 = icmp slt i32 %1, 0
  br i1 %9, label %10, label %12

10:                                               ; preds = %8
  %11 = tail call zeroext i1 (ptr, ...) @SDL_SetError_REAL(ptr noundef nonnull @.str.35) #7
  br label %33

12:                                               ; preds = %8
  %13 = getelementptr inbounds nuw i8, ptr %5, i64 160
  %14 = load ptr, ptr %13, align 8
  %15 = getelementptr inbounds nuw i8, ptr %5, i64 16
  %16 = load ptr, ptr %15, align 8
  %17 = tail call i32 %14(ptr noundef %16, i32 noundef %1) #7
  %18 = icmp eq i32 %17, 1
  %19 = load ptr, ptr %4, align 8
  br i1 %18, label %20, label %22

20:                                               ; preds = %12
  %21 = getelementptr inbounds nuw i8, ptr %19, i64 32
  store i32 %1, ptr %21, align 8
  br label %33

22:                                               ; preds = %12
  %23 = getelementptr inbounds nuw i8, ptr %19, i64 208
  %24 = load ptr, ptr %23, align 8
  %25 = tail call i32 %24() #7
  %switch.tableidx = add i32 %25, -12288
  %26 = icmp ult i32 %switch.tableidx, 15
  br i1 %26, label %switch.lookup, label %SDL_EGL_GetErrorName.exit.i

switch.lookup:                                    ; preds = %22
  %27 = zext nneg i32 %switch.tableidx to i64
  %switch.gep = getelementptr inbounds nuw [15 x ptr], ptr @switch.table.SDL_EGL_CreateSurface, i64 0, i64 %27
  %switch.load = load ptr, ptr %switch.gep, align 8
  br label %SDL_EGL_GetErrorName.exit.i

SDL_EGL_GetErrorName.exit.i:                      ; preds = %22, %switch.lookup
  %.0.i.i = phi ptr [ %switch.load, %switch.lookup ], [ @.str.62, %22 ]
  call void @llvm.lifetime.start.p0(i64 32, ptr nonnull %3) #7
  %28 = load i8, ptr %.0.i.i, align 1
  %29 = icmp eq i8 %28, 0
  br i1 %29, label %30, label %SDL_EGL_SetErrorEx.exit

30:                                               ; preds = %SDL_EGL_GetErrorName.exit.i
  %31 = call i32 (ptr, i64, ptr, ...) @SDL_snprintf_REAL(ptr noundef nonnull %3, i64 noundef 32, ptr noundef nonnull @.str, i32 noundef %25) #7
  br label %SDL_EGL_SetErrorEx.exit

SDL_EGL_SetErrorEx.exit:                          ; preds = %SDL_EGL_GetErrorName.exit.i, %30
  %.0.i = phi ptr [ %3, %30 ], [ %.0.i.i, %SDL_EGL_GetErrorName.exit.i ]
  %32 = call zeroext i1 (ptr, ...) @SDL_SetError_REAL(ptr noundef nonnull @.str.1, ptr noundef nonnull @.str.36, ptr noundef nonnull @.str.37, ptr noundef nonnull %.0.i) #7
  call void @llvm.lifetime.end.p0(i64 32, ptr nonnull %3) #7
  br label %33

33:                                               ; preds = %SDL_EGL_SetErrorEx.exit, %20, %10, %6
  %.0 = phi i1 [ %11, %10 ], [ true, %20 ], [ %32, %SDL_EGL_SetErrorEx.exit ], [ %7, %6 ]
  ret i1 %.0
}